(dp1
S'N_frame'
p2
I128
sS'N_X'
p3
I128
sS'N_Y'
p4
I128
sS'observer'
p5
Vanonymous
p6
sS'timeStr'
p7
S'Feb_07_1558'
p8
sS'nTrials'
p9
I50
sS'screen_height'
p10
I1440
sS'N_frame_total'
p11
I128
sS'screen_width'
p12
I2560
s.